target datalayout = "e-m:e-p270:32:32-p271:32:32-p272:64:64-i64:64-i128:128-f80:128-n8:16:32:64-S128"
target triple = "x86_64-pc-linux-gnu"

%"class.cv::Point_" = type { float, float }

; Function Attrs: mustprogress nounwind uwtable
define linkonce_odr hidden void @_ZN2cv6Point_IfEC2Eff(ptr noundef nonnull align 4 dereferenceable(8) %0, float noundef %1, float noundef %2) unnamed_addr #5 comdat align 2 {
  %4 = alloca ptr, align 8
  %5 = alloca float, align 4
  %6 = alloca float, align 4
  store ptr %0, ptr %4, align 8
  store float %1, ptr %5, align 4
  store float %2, ptr %6, align 4
  %7 = load ptr, ptr %4, align 8
  %8 = getelementptr inbounds %"class.cv::Point_", ptr %7, i32 0, i32 0
  %9 = load float, ptr %5, align 4
  store float %9, ptr %8, align 4
  %10 = getelementptr inbounds %"class.cv::Point_", ptr %7, i32 0, i32 1
  %11 = load float, ptr %6, align 4
  store float %11, ptr %10, align 4
  ret void
}

; Function Attrs: mustprogress nounwind uwtable
define internal noundef float @_ZN2cvL13saturate_castIfEET_f(float noundef %0) #5 {
  %2 = alloca float, align 4
  store float %0, ptr %2, align 4
  %3 = load float, ptr %2, align 4
  ret float %3
}

; Function Attrs: mustprogress uwtable
define internal <2 x float> @_ZN2cvmiIfEENS_6Point_IT_EERKS3_S5_(ptr noundef nonnull align 4 dereferenceable(8) %0, ptr noundef nonnull align 4 dereferenceable(8) %1) #4 {
  %3 = alloca %"class.cv::Point_", align 4
  %4 = alloca ptr, align 8
  %5 = alloca ptr, align 8
  store ptr %0, ptr %4, align 8
  store ptr %1, ptr %5, align 8
  %6 = load ptr, ptr %4, align 8
  %7 = getelementptr inbounds %"class.cv::Point_", ptr %6, i32 0, i32 0
  %8 = load float, ptr %7, align 4
  %9 = load ptr, ptr %5, align 8
  %10 = getelementptr inbounds %"class.cv::Point_", ptr %9, i32 0, i32 0
  %11 = load float, ptr %10, align 4
  %12 = fsub float %8, %11
  %13 = call noundef float @_ZN2cvL13saturate_castIfEET_f(float noundef %12)
  %14 = load ptr, ptr %4, align 8
  %15 = getelementptr inbounds %"class.cv::Point_", ptr %14, i32 0, i32 1
  %16 = load float, ptr %15, align 4
  %17 = load ptr, ptr %5, align 8
  %18 = getelementptr inbounds %"class.cv::Point_", ptr %17, i32 0, i32 1
  %19 = load float, ptr %18, align 4
  %20 = fsub float %16, %19
  %21 = call noundef float @_ZN2cvL13saturate_castIfEET_f(float noundef %20)
  call void @_ZN2cv6Point_IfEC2Eff(ptr noundef nonnull align 4 dereferenceable(8) %3, float noundef %13, float noundef %21)
  %22 = load <2 x float>, ptr %3, align 4
  ret <2 x float> %22
}

; Function Attrs: mustprogress uwtable
define hidden noundef double @_ZN17CirclesGridFinder12getDirectionEN2cv6Point_IfEES2_S2_(<2 x float> %0, <2 x float> %1, <2 x float> %2) #4 align 2 {
  %4 = alloca %"class.cv::Point_", align 4
  %5 = alloca %"class.cv::Point_", align 4
  %6 = alloca %"class.cv::Point_", align 4
  %7 = alloca %"class.cv::Point_", align 4
  %8 = alloca %"class.cv::Point_", align 4
  store <2 x float> %0, ptr %4, align 4
  store <2 x float> %1, ptr %5, align 4
  store <2 x float> %2, ptr %6, align 4
  %9 = call <2 x float> @_ZN2cvmiIfEENS_6Point_IT_EERKS3_S5_(ptr noundef nonnull align 4 dereferenceable(8) %6, ptr noundef nonnull align 4 dereferenceable(8) %4)
  store <2 x float> %9, ptr %7, align 4
  %10 = call <2 x float> @_ZN2cvmiIfEENS_6Point_IT_EERKS3_S5_(ptr noundef nonnull align 4 dereferenceable(8) %5, ptr noundef nonnull align 4 dereferenceable(8) %4)
  store <2 x float> %10, ptr %8, align 4
  %11 = getelementptr inbounds %"class.cv::Point_", ptr %7, i32 0, i32 0
  %12 = load float, ptr %11, align 4
  %13 = getelementptr inbounds %"class.cv::Point_", ptr %8, i32 0, i32 1
  %14 = load float, ptr %13, align 4
  %15 = getelementptr inbounds %"class.cv::Point_", ptr %7, i32 0, i32 1
  %16 = load float, ptr %15, align 4
  %17 = getelementptr inbounds %"class.cv::Point_", ptr %8, i32 0, i32 0
  %18 = load float, ptr %17, align 4
  %19 = fmul float %16, %18
  %20 = fneg float %19
  %21 = call float @llvm.fmuladd.f32(float %12, float %14, float %20)
  %22 = fpext float %21 to double
  ret double %22
}