; Function Attrs: mustprogress nofree norecurse nosync nounwind willreturn memory(none) uwtable
define hidden noundef double @_ZN17CirclesGridFinder12getDirectionEN2cv6Point_IfEES2_S2_(<2 x float> %0, <2 x float> %1, <2 x float> %2) local_unnamed_addr #15 align 2 {
  %4 = fsub <2 x float> %2, %0
  %5 = extractelement <2 x float> %4, i64 0
  %6 = fsub <2 x float> %2, %0
  %7 = extractelement <2 x float> %6, i64 1
  %8 = fsub <2 x float> %1, %0
  %9 = extractelement <2 x float> %8, i64 0
  %10 = fsub <2 x float> %1, %0
  %11 = extractelement <2 x float> %10, i64 1
  %12 = fneg float %7
  %13 = fmul float %9, %12
  %14 = tail call float @llvm.fmuladd.f32(float %5, float %11, float %13)
  %15 = fpext float %14 to double
  ret double %15
}